target datalayout = "e-m:e-p270:32:32-p271:32:32-p272:64:64-i64:64-i128:128-f80:128-n8:16:32:64-S128"
target triple = "x86_64-pc-linux-gnu"

%struct.OSQPVectorf_ = type { ptr, i64 }

; Function Attrs: nounwind uwtable
define void @OSQPVectorf_subvector_assign(ptr noundef %0, ptr noundef %1, i64 noundef %2, i64 noundef %3, double noundef %4) #0 {
  %6 = alloca ptr, align 8
  %7 = alloca ptr, align 8
  %8 = alloca i64, align 8
  %9 = alloca i64, align 8
  %10 = alloca double, align 8
  %11 = alloca i64, align 8
  store ptr %0, ptr %6, align 8
  store ptr %1, ptr %7, align 8
  store i64 %2, ptr %8, align 8
  store i64 %3, ptr %9, align 8
  store double %4, ptr %10, align 8
  store i64 0, ptr %11, align 8
  br label %12

12:                                               ; preds = %30, %5
  %13 = load i64, ptr %11, align 8
  %14 = load i64, ptr %9, align 8
  %15 = icmp slt i64 %13, %14
  br i1 %15, label %16, label %33

16:                                               ; preds = %12
  %17 = load double, ptr %10, align 8
  %18 = load ptr, ptr %7, align 8
  %19 = load i64, ptr %11, align 8
  %20 = getelementptr inbounds double, ptr %18, i64 %19
  %21 = load double, ptr %20, align 8
  %22 = fmul double %17, %21
  %23 = load ptr, ptr %6, align 8
  %24 = getelementptr inbounds %struct.OSQPVectorf_, ptr %23, i32 0, i32 0
  %25 = load ptr, ptr %24, align 8
  %26 = load i64, ptr %8, align 8
  %27 = load i64, ptr %11, align 8
  %28 = add nsw i64 %26, %27
  %29 = getelementptr inbounds double, ptr %25, i64 %28
  store double %22, ptr %29, align 8
  br label %30

30:                                               ; preds = %16
  %31 = load i64, ptr %11, align 8
  %32 = add nsw i64 %31, 1
  store i64 %32, ptr %11, align 8
  br label %12, !llvm.loop !8

33:                                               ; preds = %12
  ret void
}