; Function Attrs: nofree norecurse nosync nounwind memory(write, argmem: readwrite, inaccessiblemem: none) uwtable
define void @OSQPVectorf_subvector_assign(ptr nocapture noundef readonly %0, ptr nocapture noundef readonly %1, i64 noundef %2, i64 noundef %3, double noundef %4) local_unnamed_addr #3 {
  %6 = icmp sgt i64 %3, 0
  br i1 %6, label %.lr.ph, label %._crit_edge

.lr.ph:                                           ; preds = %5, %.lr.ph
  %.08 = phi i64 [ %13, %.lr.ph ], [ 0, %5 ]
  %7 = getelementptr inbounds double, ptr %1, i64 %.08
  %8 = load double, ptr %7, align 8
  %9 = fmul double %8, %4
  %10 = load ptr, ptr %0, align 8
  %11 = getelementptr double, ptr %10, i64 %.08
  %12 = getelementptr double, ptr %11, i64 %2
  store double %9, ptr %12, align 8
  %13 = add nuw nsw i64 %.08, 1
  %exitcond.not = icmp eq i64 %13, %3
  br i1 %exitcond.not, label %._crit_edge, label %.lr.ph, !llvm.loop !8

._crit_edge:                                      ; preds = %.lr.ph, %5
  ret void
}